target datalayout = "e-m:e-p270:32:32-p271:32:32-p272:64:64-i64:64-i128:128-f80:128-n8:16:32:64-S128"
target triple = "x86_64-pc-linux-gnu"

%"class.std::__cxx11::basic_string" = type { %"struct.std::__cxx11::basic_string<char>::_Alloc_hider", i64, %union.anon }
%"struct.std::__cxx11::basic_string<char>::_Alloc_hider" = type { ptr }
%union.anon = type { i64, [8 x i8] }

; Function Attrs: mustprogress nounwind uwtable
define available_externally noundef i64 @_ZNKSt7__cxx1112basic_stringIcSt11char_traitsIcESaIcEE6lengthEv(ptr noundef nonnull align 8 dereferenceable(32) %0) #3 align 2 {
  %2 = alloca ptr, align 8
  store ptr %0, ptr %2, align 8, !tbaa !55
  %3 = load ptr, ptr %2, align 8
  %4 = getelementptr inbounds nuw %"class.std::__cxx11::basic_string", ptr %3, i32 0, i32 1
  %5 = load i64, ptr %4, align 8, !tbaa !100
  ret i64 %5
}

; Function Attrs: mustprogress uwtable
define internal noundef zeroext i1 @_ZL7pcomparRK17InteractionOfTypeS1_(ptr noundef nonnull align 8 dereferenceable(105) %0, ptr noundef nonnull align 8 dereferenceable(105) %1) #0 {
  %3 = alloca i1, align 1
  %4 = alloca ptr, align 8
  %5 = alloca ptr, align 8
  %6 = alloca i32, align 4
  %7 = alloca i32, align 4
  store ptr %0, ptr %4, align 8, !tbaa !680
  store ptr %1, ptr %5, align 8, !tbaa !680
  call void @llvm.lifetime.start.p0(i64 4, ptr %6) #23
  %8 = load ptr, ptr %4, align 8, !tbaa !680
  %9 = call noundef nonnull align 4 dereferenceable(4) ptr @_ZNK17InteractionOfType2aiEv(ptr noundef nonnull align 8 dereferenceable(105) %8)
  %10 = load i32, ptr %9, align 4, !tbaa !15
  %11 = load ptr, ptr %5, align 8, !tbaa !680
  %12 = call noundef nonnull align 4 dereferenceable(4) ptr @_ZNK17InteractionOfType2aiEv(ptr noundef nonnull align 8 dereferenceable(105) %11)
  %13 = load i32, ptr %12, align 4, !tbaa !15
  %14 = sub nsw i32 %10, %13
  store i32 %14, ptr %6, align 4, !tbaa !15
  %15 = icmp ne i32 %14, 0
  br i1 %15, label %25, label %16

16:                                               ; preds = %2
  %17 = load ptr, ptr %4, align 8, !tbaa !680
  %18 = call noundef nonnull align 4 dereferenceable(4) ptr @_ZNK17InteractionOfType2ajEv(ptr noundef nonnull align 8 dereferenceable(105) %17)
  %19 = load i32, ptr %18, align 4, !tbaa !15
  %20 = load ptr, ptr %5, align 8, !tbaa !680
  %21 = call noundef nonnull align 4 dereferenceable(4) ptr @_ZNK17InteractionOfType2ajEv(ptr noundef nonnull align 8 dereferenceable(105) %20)
  %22 = load i32, ptr %21, align 4, !tbaa !15
  %23 = sub nsw i32 %19, %22
  store i32 %23, ptr %6, align 4, !tbaa !15
  %24 = icmp ne i32 %23, 0
  br i1 %24, label %25, label %28

25:                                               ; preds = %16, %2
  %26 = load i32, ptr %6, align 4, !tbaa !15
  %27 = icmp slt i32 %26, 0
  store i1 %27, ptr %3, align 1
  store i32 1, ptr %7, align 4
  br label %36

28:                                               ; preds = %16
  %29 = load ptr, ptr %4, align 8, !tbaa !680
  %30 = call noundef nonnull align 8 dereferenceable(32) ptr @_ZNK17InteractionOfType19interactionTypeNameB5cxx11Ev(ptr noundef nonnull align 8 dereferenceable(105) %29)
  %31 = call noundef i64 @_ZNKSt7__cxx1112basic_stringIcSt11char_traitsIcESaIcEE6lengthEv(ptr noundef nonnull align 8 dereferenceable(32) %30) #23
  %32 = load ptr, ptr %5, align 8, !tbaa !680
  %33 = call noundef nonnull align 8 dereferenceable(32) ptr @_ZNK17InteractionOfType19interactionTypeNameB5cxx11Ev(ptr noundef nonnull align 8 dereferenceable(105) %32)
  %34 = call noundef i64 @_ZNKSt7__cxx1112basic_stringIcSt11char_traitsIcESaIcEE6lengthEv(ptr noundef nonnull align 8 dereferenceable(32) %33) #23
  %35 = icmp ugt i64 %31, %34
  store i1 %35, ptr %3, align 1
  store i32 1, ptr %7, align 4
  br label %36

36:                                               ; preds = %28, %25
  call void @llvm.lifetime.end.p0(i64 4, ptr %6) #23
  %37 = load i1, ptr %3, align 1
  ret i1 %37
}