; Function Attrs: mustprogress uwtable
define internal noundef zeroext i1 @_ZL7pcomparRK17InteractionOfTypeS1_(ptr noundef nonnull align 8 dereferenceable(105) %0, ptr noundef nonnull align 8 dereferenceable(105) %1) #4 {
  %3 = tail call noundef nonnull align 4 dereferenceable(4) ptr @_ZNK17InteractionOfType2aiEv(ptr noundef nonnull align 8 dereferenceable(105) %0)
  %4 = load i32, ptr %3, align 4, !tbaa !59
  %5 = tail call noundef nonnull align 4 dereferenceable(4) ptr @_ZNK17InteractionOfType2aiEv(ptr noundef nonnull align 8 dereferenceable(105) %1)
  %6 = load i32, ptr %5, align 4, !tbaa !59
  %7 = sub nsw i32 %4, %6
  %.not = icmp eq i32 %7, 0
  br i1 %.not, label %8, label %14

8:                                                ; preds = %2
  %9 = tail call noundef nonnull align 4 dereferenceable(4) ptr @_ZNK17InteractionOfType2ajEv(ptr noundef nonnull align 8 dereferenceable(105) %0)
  %10 = load i32, ptr %9, align 4, !tbaa !59
  %11 = tail call noundef nonnull align 4 dereferenceable(4) ptr @_ZNK17InteractionOfType2ajEv(ptr noundef nonnull align 8 dereferenceable(105) %1)
  %12 = load i32, ptr %11, align 4, !tbaa !59
  %13 = sub nsw i32 %10, %12
  %.not10 = icmp eq i32 %13, 0
  br i1 %.not10, label %16, label %14

14:                                               ; preds = %8, %2
  %.0 = phi i32 [ %7, %2 ], [ %13, %8 ]
  %15 = icmp slt i32 %.0, 0
  br label %24

16:                                               ; preds = %8
  %17 = tail call noundef nonnull align 8 dereferenceable(32) ptr @_ZNK17InteractionOfType19interactionTypeNameB5cxx11Ev(ptr noundef nonnull align 8 dereferenceable(105) %0)
  %18 = getelementptr inbounds nuw i8, ptr %17, i64 8
  %19 = load i64, ptr %18, align 8, !tbaa !32
  %20 = tail call noundef nonnull align 8 dereferenceable(32) ptr @_ZNK17InteractionOfType19interactionTypeNameB5cxx11Ev(ptr noundef nonnull align 8 dereferenceable(105) %1)
  %21 = getelementptr inbounds nuw i8, ptr %20, i64 8
  %22 = load i64, ptr %21, align 8, !tbaa !32
  %23 = icmp ugt i64 %19, %22
  br label %24

24:                                               ; preds = %16, %14
  %.07 = phi i1 [ %15, %14 ], [ %23, %16 ]
  ret i1 %.07
}